target datalayout = "e-m:e-p270:32:32-p271:32:32-p272:64:64-i64:64-i128:128-f80:128-n8:16:32:64-S128"
target triple = "x86_64-pc-linux-gnu"

@_ZTIN19OpenColorIO_v2_5dev9ExceptionE = external constant ptr
@_ZN19OpenColorIO_v2_5dev12_GLOBAL__N_120NEGATIVE_STYLE_CLAMPE = internal constant [6 x i8] c"clamp\00", align 1
@_ZN19OpenColorIO_v2_5dev12_GLOBAL__N_121NEGATIVE_STYLE_MIRRORE = internal constant [7 x i8] c"mirror\00", align 1
@_ZN19OpenColorIO_v2_5dev12_GLOBAL__N_124NEGATIVE_STYLE_PASS_THRUE = internal constant [10 x i8] c"pass_thru\00", align 1
@_ZN19OpenColorIO_v2_5dev12_GLOBAL__N_121NEGATIVE_STYLE_LINEARE = internal constant [7 x i8] c"linear\00", align 1
@.str.104 = private unnamed_addr constant [23 x i8] c"Unknown exponent style\00", align 1

; Function Attrs: mustprogress uwtable
define noundef ptr @_ZN19OpenColorIO_v2_5dev21NegativeStyleToStringENS_13NegativeStyleE(i32 noundef %0) #6 personality ptr @__gxx_personality_v0 {
  %2 = alloca ptr, align 8
  %3 = alloca i32, align 4
  %4 = alloca ptr, align 8
  %5 = alloca i32, align 4
  store i32 %0, ptr %3, align 4, !tbaa !77
  %6 = load i32, ptr %3, align 4, !tbaa !77
  switch i32 %6, label %11 [
    i32 0, label %7
    i32 1, label %8
    i32 2, label %9
    i32 3, label %10
  ]

7:                                                ; preds = %1
  store ptr @_ZN19OpenColorIO_v2_5dev12_GLOBAL__N_120NEGATIVE_STYLE_CLAMPE, ptr %2, align 8
  br label %18

8:                                                ; preds = %1
  store ptr @_ZN19OpenColorIO_v2_5dev12_GLOBAL__N_121NEGATIVE_STYLE_MIRRORE, ptr %2, align 8
  br label %18

9:                                                ; preds = %1
  store ptr @_ZN19OpenColorIO_v2_5dev12_GLOBAL__N_124NEGATIVE_STYLE_PASS_THRUE, ptr %2, align 8
  br label %18

10:                                               ; preds = %1
  store ptr @_ZN19OpenColorIO_v2_5dev12_GLOBAL__N_121NEGATIVE_STYLE_LINEARE, ptr %2, align 8
  br label %18

11:                                               ; preds = %1
  %12 = call ptr @__cxa_allocate_exception(i64 16) #3
  invoke void @_ZN19OpenColorIO_v2_5dev9ExceptionC1EPKc(ptr noundef nonnull align 8 dereferenceable(16) %12, ptr noundef @.str.104)
          to label %13 unwind label %14

13:                                               ; preds = %11
  call void @__cxa_throw(ptr %12, ptr @_ZTIN19OpenColorIO_v2_5dev9ExceptionE, ptr @_ZN19OpenColorIO_v2_5dev9ExceptionD1Ev) #18
  unreachable

14:                                               ; preds = %11
  %15 = landingpad { ptr, i32 }
          cleanup
  %16 = extractvalue { ptr, i32 } %15, 0
  store ptr %16, ptr %4, align 8
  %17 = extractvalue { ptr, i32 } %15, 1
  store i32 %17, ptr %5, align 4
  call void @__cxa_free_exception(ptr %12) #3
  br label %20

18:                                               ; preds = %10, %9, %8, %7
  %19 = load ptr, ptr %2, align 8
  ret ptr %19

20:                                               ; preds = %14
  %21 = load ptr, ptr %4, align 8
  %22 = load i32, ptr %5, align 4
  %23 = insertvalue { ptr, i32 } poison, ptr %21, 0
  %24 = insertvalue { ptr, i32 } %23, i32 %22, 1
  resume { ptr, i32 } %24
}